; Function Attrs: mustprogress nofree norecurse nosync nounwind willreturn memory(read, inaccessiblemem: none) uwtable
define range(i32 0, 2) i32 @Gia_ObjCheckEdge(ptr noundef readonly captures(none) %0, i32 noundef %1, i32 noundef %2) local_unnamed_addr #4 {
  %4 = getelementptr inbounds nuw i8, ptr %0, i64 352
  %5 = load ptr, ptr %4, align 8, !tbaa !32
  %6 = getelementptr i8, ptr %5, i64 8
  %.val5.i = load ptr, ptr %6, align 8, !tbaa !8
  %7 = sext i32 %1 to i64
  %8 = getelementptr inbounds i32, ptr %.val5.i, i64 %7
  %9 = load i32, ptr %8, align 4, !tbaa !34
  %10 = icmp eq i32 %9, %2
  br i1 %10, label %Gia_ObjHaveEdge.exit, label %11

11:                                               ; preds = %3
  %12 = getelementptr inbounds nuw i8, ptr %0, i64 360
  %13 = load ptr, ptr %12, align 8, !tbaa !33
  %14 = getelementptr i8, ptr %13, i64 8
  %.val.i = load ptr, ptr %14, align 8, !tbaa !8
  %15 = getelementptr inbounds i32, ptr %.val.i, i64 %7
  %16 = load i32, ptr %15, align 4, !tbaa !34
  %17 = icmp eq i32 %16, %2
  %18 = zext i1 %17 to i32
  br label %Gia_ObjHaveEdge.exit

Gia_ObjHaveEdge.exit:                             ; preds = %3, %11
  %19 = phi i32 [ 1, %3 ], [ %18, %11 ]
  ret i32 %19
}